#include <math.h>
#include <stdio.h>
#include <stdlib.h>
#include <string.h>


int main(){
	int a[1000][1000];
	int n,i,k,x,y,z,w,s;
	scanf("%d",&n);

	for(i=0;i<n;i++){
		for(k=0;k<n;k++){
			scanf("%d",&a[i][k]);
		}
	}

	for(i=0;i<n;i++){
		for(k=1;k<n;k++){
			if(a[i][k-1]!=0&&a[i][k]==0&&a[i][k+1]==0&&a[i+1][k]==0){
				x=i;
				y=k;
			}
		}
	}

	for(i=1;i<n;i++){
		for(k=1;k<n-1;k++){
			if(a[i][k-1]==0&&a[i][k]==0&&a[i][k+1]!=0&&a[i-1][k]==0){
				z=i;
				w=k;
			}
		}
	}
	
	s=(z-1-x)*(w-1-y);
	printf("%d",s);

	return 0;
}
